target datalayout = "e-m:e-p270:32:32-p271:32:32-p272:64:64-i64:64-i128:128-f80:128-n8:16:32:64-S128"
target triple = "x86_64-pc-linux-gnu"

; Function Attrs: nounwind uwtable
define hidden i32 @evutil_open_closeonexec_(ptr noundef %0, i32 noundef %1, i32 noundef %2) #0 {
  %4 = alloca i32, align 4
  %5 = alloca ptr, align 8
  %6 = alloca i32, align 4
  %7 = alloca i32, align 4
  %8 = alloca i32, align 4
  %9 = alloca i32, align 4
  store ptr %0, ptr %5, align 8
  store i32 %1, ptr %6, align 4
  store i32 %2, ptr %7, align 4
  call void @llvm.lifetime.start.p0(i64 4, ptr %8) #11
  %10 = load ptr, ptr %5, align 8
  %11 = load i32, ptr %6, align 4
  %12 = or i32 %11, 524288
  %13 = load i32, ptr %7, align 4
  %14 = call i32 (ptr, i32, ...) @open(ptr noundef %10, i32 noundef %12, i32 noundef %13)
  store i32 %14, ptr %8, align 4
  %15 = load i32, ptr %8, align 4
  %16 = icmp sge i32 %15, 0
  br i1 %16, label %21, label %17

17:                                               ; preds = %3
  %18 = call ptr @__errno_location() #12
  %19 = load i32, ptr %18, align 4
  %20 = icmp eq i32 %19, 22
  br i1 %20, label %21, label %23

21:                                               ; preds = %17, %3
  %22 = load i32, ptr %8, align 4
  store i32 %22, ptr %4, align 4
  store i32 1, ptr %9, align 4
  br label %40

23:                                               ; preds = %17
  %24 = load ptr, ptr %5, align 8
  %25 = load i32, ptr %6, align 4
  %26 = load i32, ptr %7, align 4
  %27 = call i32 (ptr, i32, ...) @open(ptr noundef %24, i32 noundef %25, i32 noundef %26)
  store i32 %27, ptr %8, align 4
  %28 = load i32, ptr %8, align 4
  %29 = icmp slt i32 %28, 0
  br i1 %29, label %30, label %31

30:                                               ; preds = %23
  store i32 -1, ptr %4, align 4
  store i32 1, ptr %9, align 4
  br label %40

31:                                               ; preds = %23
  %32 = load i32, ptr %8, align 4
  %33 = call i32 (i32, i32, ...) @fcntl(i32 noundef %32, i32 noundef 2, i32 noundef 1)
  %34 = icmp slt i32 %33, 0
  br i1 %34, label %35, label %38

35:                                               ; preds = %31
  %36 = load i32, ptr %8, align 4
  %37 = call i32 @close(i32 noundef %36)
  store i32 -1, ptr %4, align 4
  store i32 1, ptr %9, align 4
  br label %40

38:                                               ; preds = %31
  %39 = load i32, ptr %8, align 4
  store i32 %39, ptr %4, align 4
  store i32 1, ptr %9, align 4
  br label %40

40:                                               ; preds = %38, %35, %30, %21
  call void @llvm.lifetime.end.p0(i64 4, ptr %8) #11
  %41 = load i32, ptr %4, align 4
  ret i32 %41
}