; Function Attrs: nounwind uwtable
define hidden noundef i32 @evutil_open_closeonexec_(ptr noundef readonly captures(none) %0, i32 noundef %1, i32 noundef %2) local_unnamed_addr #0 {
  %4 = or i32 %1, 524288
  %5 = tail call i32 (ptr, i32, ...) @open(ptr noundef %0, i32 noundef %4, i32 noundef %2) #30
  %6 = icmp sgt i32 %5, -1
  br i1 %6, label %19, label %7

7:                                                ; preds = %3
  %8 = tail call ptr @__errno_location() #31
  %9 = load i32, ptr %8, align 4
  %10 = icmp eq i32 %9, 22
  br i1 %10, label %19, label %11

11:                                               ; preds = %7
  %12 = tail call i32 (ptr, i32, ...) @open(ptr noundef %0, i32 noundef %1, i32 noundef %2) #30
  %13 = icmp slt i32 %12, 0
  br i1 %13, label %19, label %14

14:                                               ; preds = %11
  %15 = tail call i32 (i32, i32, ...) @fcntl(i32 noundef %12, i32 noundef 2, i32 noundef 1) #30
  %16 = icmp slt i32 %15, 0
  br i1 %16, label %17, label %19

17:                                               ; preds = %14
  %18 = tail call i32 @close(i32 noundef %12) #30
  br label %19

19:                                               ; preds = %14, %11, %3, %7, %17
  %.0 = phi i32 [ -1, %17 ], [ %5, %7 ], [ %5, %3 ], [ -1, %11 ], [ %12, %14 ]
  ret i32 %.0
}